target datalayout = "e-m:e-p270:32:32-p271:32:32-p272:64:64-i64:64-i128:128-f80:128-n8:16:32:64-S128"
target triple = "x86_64-pc-linux-gnu"

%"class.doctest::String" = type { %union.anon.7 }
%union.anon.7 = type { %"struct.doctest::String::view", [8 x i8] }
%"struct.doctest::String::view" = type { ptr, i32, i32 }

@_ZN7doctest6StringD1Ev = dso_local unnamed_addr alias void (ptr), ptr @_ZN7doctest6StringD2Ev
@_ZN7doctest6StringC1EPKc = dso_local unnamed_addr alias void (ptr, ptr), ptr @_ZN7doctest6StringC2EPKc

; Function Attrs: mustprogress nounwind uwtable
define dso_local void @_ZN7doctest6String7setLastEj(ptr noundef nonnull align 8 dereferenceable(24) %0, i32 noundef %1) #1 align 2 {
  %3 = alloca ptr, align 8
  %4 = alloca i32, align 4
  store ptr %0, ptr %3, align 8, !tbaa !59
  store i32 %1, ptr %4, align 4, !tbaa !4
  %5 = load ptr, ptr %3, align 8
  %6 = load i32, ptr %4, align 4, !tbaa !4
  %7 = trunc i32 %6 to i8
  %8 = getelementptr inbounds nuw %"class.doctest::String", ptr %5, i32 0, i32 0
  %9 = getelementptr inbounds nuw [24 x i8], ptr %8, i64 0, i64 23
  store i8 %7, ptr %9, align 1, !tbaa !55
  ret void
}

; Function Attrs: mustprogress nounwind uwtable
define linkonce_odr dso_local noundef zeroext i1 @_ZNK7doctest6String9isOnStackEv(ptr noundef nonnull align 8 dereferenceable(24) %0) #1 comdat align 2 {
  %2 = alloca ptr, align 8
  store ptr %0, ptr %2, align 8, !tbaa !59
  %3 = load ptr, ptr %2, align 8
  %4 = getelementptr inbounds nuw %"class.doctest::String", ptr %3, i32 0, i32 0
  %5 = getelementptr inbounds nuw [24 x i8], ptr %4, i64 0, i64 23
  %6 = load i8, ptr %5, align 1, !tbaa !55
  %7 = sext i8 %6 to i32
  %8 = and i32 %7, 128
  %9 = icmp eq i32 %8, 0
  ret i1 %9
}

; Function Attrs: mustprogress nounwind uwtable
define dso_local noundef nonnull align 8 dereferenceable(24) ptr @_ZN7doctest6StringaSEOS0_(ptr noundef nonnull align 8 dereferenceable(24) %0, ptr noundef nonnull align 8 dereferenceable(24) %1) #1 align 2 {
  %3 = alloca ptr, align 8
  %4 = alloca ptr, align 8
  store ptr %0, ptr %3, align 8, !tbaa !59
  store ptr %1, ptr %4, align 8, !tbaa !59
  %5 = load ptr, ptr %3, align 8
  %6 = load ptr, ptr %4, align 8, !tbaa !59
  %7 = icmp ne ptr %5, %6
  br i1 %7, label %8, label %27

8:                                                ; preds = %2
  %9 = call noundef zeroext i1 @_ZNK7doctest6String9isOnStackEv(ptr noundef nonnull align 8 dereferenceable(24) %5) #7
  br i1 %9, label %17, label %10

10:                                               ; preds = %8
  %11 = getelementptr inbounds nuw %"class.doctest::String", ptr %5, i32 0, i32 0
  %12 = getelementptr inbounds nuw %"struct.doctest::String::view", ptr %11, i32 0, i32 0
  %13 = load ptr, ptr %12, align 8, !tbaa !55
  %14 = icmp eq ptr %13, null
  br i1 %14, label %16, label %15

15:                                               ; preds = %10
  call void @_ZdaPv(ptr noundef %13) #31
  br label %16

16:                                               ; preds = %15, %10
  br label %17

17:                                               ; preds = %16, %8
  %18 = getelementptr inbounds nuw %"class.doctest::String", ptr %5, i32 0, i32 0
  %19 = getelementptr inbounds [24 x i8], ptr %18, i64 0, i64 0
  %20 = load ptr, ptr %4, align 8, !tbaa !59
  %21 = getelementptr inbounds nuw %"class.doctest::String", ptr %20, i32 0, i32 0
  %22 = getelementptr inbounds [24 x i8], ptr %21, i64 0, i64 0
  call void @llvm.memcpy.p0.p0.i64(ptr align 8 %19, ptr align 8 %22, i64 24, i1 false)
  %23 = load ptr, ptr %4, align 8, !tbaa !59
  %24 = getelementptr inbounds nuw %"class.doctest::String", ptr %23, i32 0, i32 0
  %25 = getelementptr inbounds [24 x i8], ptr %24, i64 0, i64 0
  store i8 0, ptr %25, align 8, !tbaa !55
  %26 = load ptr, ptr %4, align 8, !tbaa !59
  call void @_ZN7doctest6String7setLastEj(ptr noundef nonnull align 8 dereferenceable(24) %26, i32 noundef 23) #7
  br label %27

27:                                               ; preds = %17, %2
  ret ptr %5
}

; Function Attrs: mustprogress uwtable
define internal noundef zeroext i1 @_ZN7doctest12_GLOBAL__N_115parseOptionImplEiPKPKcS2_PNS_6StringE(i32 noundef %0, ptr noundef %1, ptr noundef %2, ptr noundef %3) #8 {
  %5 = alloca i1, align 1
  %6 = alloca i32, align 4
  %7 = alloca ptr, align 8
  %8 = alloca ptr, align 8
  %9 = alloca ptr, align 8
  %10 = alloca i32, align 4
  %11 = alloca i32, align 4
  %12 = alloca i32, align 4
  %13 = alloca ptr, align 8
  %14 = alloca i8, align 1
  %15 = alloca ptr, align 8
  %16 = alloca i32, align 4
  %17 = alloca %"class.doctest::String", align 8
  store i32 %0, ptr %6, align 4, !tbaa !4
  store ptr %1, ptr %7, align 8, !tbaa !308
  store ptr %2, ptr %8, align 8, !tbaa !14
  store ptr %3, ptr %9, align 8, !tbaa !59
  call void @llvm.lifetime.start.p0(i64 4, ptr %10) #7
  %18 = load i32, ptr %6, align 4, !tbaa !4
  store i32 %18, ptr %10, align 4, !tbaa !4
  br label %19

19:                                               ; preds = %106, %4
  %20 = load i32, ptr %10, align 4, !tbaa !4
  %21 = icmp sgt i32 %20, 0
  br i1 %21, label %23, label %22

22:                                               ; preds = %19
  store i32 2, ptr %11, align 4
  br label %109

23:                                               ; preds = %19
  call void @llvm.lifetime.start.p0(i64 4, ptr %12) #7
  %24 = load i32, ptr %10, align 4, !tbaa !4
  %25 = sub nsw i32 %24, 1
  store i32 %25, ptr %12, align 4, !tbaa !4
  call void @llvm.lifetime.start.p0(i64 8, ptr %13) #7
  %26 = load ptr, ptr %7, align 8, !tbaa !308
  %27 = load i32, ptr %12, align 4, !tbaa !4
  %28 = sext i32 %27 to i64
  %29 = getelementptr inbounds ptr, ptr %26, i64 %28
  %30 = load ptr, ptr %29, align 8, !tbaa !14
  %31 = load ptr, ptr %8, align 8, !tbaa !14
  %32 = call noundef ptr @strstr(ptr noundef %30, ptr noundef %31) #32
  store ptr %32, ptr %13, align 8, !tbaa !14
  %33 = load ptr, ptr %13, align 8, !tbaa !14
  %34 = icmp ne ptr %33, null
  br i1 %34, label %35, label %102

35:                                               ; preds = %23
  %36 = load ptr, ptr %9, align 8, !tbaa !59
  %37 = icmp ne ptr %36, null
  br i1 %37, label %44, label %38

38:                                               ; preds = %35
  %39 = load ptr, ptr %13, align 8, !tbaa !14
  %40 = call i64 @strlen(ptr noundef %39) #32
  %41 = load ptr, ptr %8, align 8, !tbaa !14
  %42 = call i64 @strlen(ptr noundef %41) #32
  %43 = icmp eq i64 %40, %42
  br i1 %43, label %44, label %102

44:                                               ; preds = %38, %35
  call void @llvm.lifetime.start.p0(i64 1, ptr %14) #7
  store i8 1, ptr %14, align 1, !tbaa !16
  call void @llvm.lifetime.start.p0(i64 8, ptr %15) #7
  %45 = load ptr, ptr %7, align 8, !tbaa !308
  %46 = load i32, ptr %12, align 4, !tbaa !4
  %47 = sext i32 %46 to i64
  %48 = getelementptr inbounds ptr, ptr %45, i64 %47
  %49 = load ptr, ptr %48, align 8, !tbaa !14
  store ptr %49, ptr %15, align 8, !tbaa !14
  br label %50

50:                                               ; preds = %61, %44
  %51 = load ptr, ptr %15, align 8, !tbaa !14
  %52 = load ptr, ptr %13, align 8, !tbaa !14
  %53 = icmp ne ptr %51, %52
  br i1 %53, label %54, label %62

54:                                               ; preds = %50
  %55 = load ptr, ptr %15, align 8, !tbaa !14
  %56 = getelementptr inbounds nuw i8, ptr %55, i32 1
  store ptr %56, ptr %15, align 8, !tbaa !14
  %57 = load i8, ptr %55, align 1, !tbaa !55
  %58 = sext i8 %57 to i32
  %59 = icmp ne i32 %58, 45
  br i1 %59, label %60, label %61

60:                                               ; preds = %54
  store i8 0, ptr %14, align 1, !tbaa !16
  br label %62

61:                                               ; preds = %54
  br label %50, !llvm.loop !692

62:                                               ; preds = %60, %50
  %63 = load i8, ptr %14, align 1, !tbaa !16, !range !36, !noundef !37
  %64 = trunc i8 %63 to i1
  br i1 %64, label %65, label %98

65:                                               ; preds = %62
  %66 = load ptr, ptr %7, align 8, !tbaa !308
  %67 = load i32, ptr %12, align 4, !tbaa !4
  %68 = sext i32 %67 to i64
  %69 = getelementptr inbounds ptr, ptr %66, i64 %68
  %70 = load ptr, ptr %69, align 8, !tbaa !14
  %71 = getelementptr inbounds i8, ptr %70, i64 0
  %72 = load i8, ptr %71, align 1, !tbaa !55
  %73 = sext i8 %72 to i32
  %74 = icmp eq i32 %73, 45
  br i1 %74, label %75, label %98

75:                                               ; preds = %65
  %76 = load ptr, ptr %9, align 8, !tbaa !59
  %77 = icmp ne ptr %76, null
  br i1 %77, label %78, label %96

78:                                               ; preds = %75
  %79 = load ptr, ptr %8, align 8, !tbaa !14
  %80 = call i64 @strlen(ptr noundef %79) #32
  %81 = load ptr, ptr %13, align 8, !tbaa !14
  %82 = getelementptr inbounds nuw i8, ptr %81, i64 %80
  store ptr %82, ptr %13, align 8, !tbaa !14
  call void @llvm.lifetime.start.p0(i64 4, ptr %16) #7
  %83 = load ptr, ptr %13, align 8, !tbaa !14
  %84 = call i64 @strlen(ptr noundef %83) #32
  %85 = trunc i64 %84 to i32
  store i32 %85, ptr %16, align 4, !tbaa !4
  %86 = load i32, ptr %16, align 4, !tbaa !4
  %87 = icmp ne i32 %86, 0
  br i1 %87, label %88, label %92

88:                                               ; preds = %78
  call void @llvm.lifetime.start.p0(i64 24, ptr %17) #7
  %89 = load ptr, ptr %13, align 8, !tbaa !14
  call void @_ZN7doctest6StringC1EPKc(ptr noundef nonnull align 8 dereferenceable(24) %17, ptr noundef %89)
  %90 = load ptr, ptr %9, align 8, !tbaa !59
  %91 = call noundef nonnull align 8 dereferenceable(24) ptr @_ZN7doctest6StringaSEOS0_(ptr noundef nonnull align 8 dereferenceable(24) %90, ptr noundef nonnull align 8 dereferenceable(24) %17) #7
  call void @_ZN7doctest6StringD1Ev(ptr noundef nonnull align 8 dereferenceable(24) %17) #7
  call void @llvm.lifetime.end.p0(i64 24, ptr %17) #7
  store i1 true, ptr %5, align 1
  store i32 1, ptr %11, align 4
  br label %93

92:                                               ; preds = %78
  store i32 0, ptr %11, align 4
  br label %93

93:                                               ; preds = %92, %88
  call void @llvm.lifetime.end.p0(i64 4, ptr %16) #7
  %94 = load i32, ptr %11, align 4
  switch i32 %94, label %99 [
    i32 0, label %95
  ]

95:                                               ; preds = %93
  br label %97

96:                                               ; preds = %75
  store i1 true, ptr %5, align 1
  store i32 1, ptr %11, align 4
  br label %99

97:                                               ; preds = %95
  br label %98

98:                                               ; preds = %97, %65, %62
  store i32 0, ptr %11, align 4
  br label %99

99:                                               ; preds = %98, %96, %93
  call void @llvm.lifetime.end.p0(i64 8, ptr %15) #7
  call void @llvm.lifetime.end.p0(i64 1, ptr %14) #7
  %100 = load i32, ptr %11, align 4
  switch i32 %100, label %103 [
    i32 0, label %101
  ]

101:                                              ; preds = %99
  br label %102

102:                                              ; preds = %101, %38, %23
  store i32 0, ptr %11, align 4
  br label %103

103:                                              ; preds = %102, %99
  call void @llvm.lifetime.end.p0(i64 8, ptr %13) #7
  call void @llvm.lifetime.end.p0(i64 4, ptr %12) #7
  %104 = load i32, ptr %11, align 4
  switch i32 %104, label %109 [
    i32 0, label %105
  ]

105:                                              ; preds = %103
  br label %106

106:                                              ; preds = %105
  %107 = load i32, ptr %10, align 4, !tbaa !4
  %108 = add nsw i32 %107, -1
  store i32 %108, ptr %10, align 4, !tbaa !4
  br label %19, !llvm.loop !693

109:                                              ; preds = %103, %22
  call void @llvm.lifetime.end.p0(i64 4, ptr %10) #7
  %110 = load i32, ptr %11, align 4
  switch i32 %110, label %114 [
    i32 2, label %111
    i32 1, label %112
  ]

111:                                              ; preds = %109
  store i1 false, ptr %5, align 1
  br label %112

112:                                              ; preds = %111, %109
  %113 = load i1, ptr %5, align 1
  ret i1 %113

114:                                              ; preds = %109
  unreachable
}