; Function Attrs: mustprogress uwtable
define internal fastcc noundef zeroext i1 @_ZN7doctest12_GLOBAL__N_115parseOptionImplEiPKPKcS2_PNS_6StringE(i32 noundef %0, ptr noundef readonly captures(none) %1, ptr noundef readonly captures(none) %2, ptr noundef %3) unnamed_addr #8 {
  %5 = alloca %"class.doctest::String", align 8
  %invariant.gep = getelementptr i8, ptr %1, i64 -8
  %6 = icmp sgt i32 %0, 0
  br i1 %6, label %.lr.ph, label %.critedge50

.lr.ph:                                           ; preds = %4
  %.not41 = icmp eq ptr %3, null
  %7 = zext nneg i32 %0 to i64
  br i1 %.not41, label %.lr.ph.split.us, label %.lr.ph.split

.lr.ph.split.us:                                  ; preds = %.lr.ph, %.critedge46.us
  %indvars.iv62 = phi i64 [ %indvars.iv.next63, %.critedge46.us ], [ %7, %.lr.ph ]
  %gep.us = getelementptr ptr, ptr %invariant.gep, i64 %indvars.iv62
  %8 = load ptr, ptr %gep.us, align 8, !tbaa !5
  %9 = tail call noundef ptr @strstr(ptr noundef nonnull dereferenceable(1) %8, ptr noundef nonnull dereferenceable(1) %2) #52
  %.not.us = icmp eq ptr %9, null
  br i1 %.not.us, label %.critedge46.us, label %10

10:                                               ; preds = %.lr.ph.split.us
  %11 = tail call i64 @strlen(ptr noundef nonnull dereferenceable(1) %9) #52
  %12 = tail call i64 @strlen(ptr noundef nonnull dereferenceable(1) %2) #52
  %13 = icmp eq i64 %11, %12
  br i1 %13, label %.preheader, label %.critedge46.us

.preheader:                                       ; preds = %10, %14
  %.032.us = phi ptr [ %15, %14 ], [ %8, %10 ]
  %.not42.us = icmp eq ptr %.032.us, %9
  br i1 %.not42.us, label %.critedge.us, label %14

14:                                               ; preds = %.preheader
  %15 = getelementptr inbounds nuw i8, ptr %.032.us, i64 1
  %16 = load i8, ptr %.032.us, align 1, !tbaa !38
  %.not43.us = icmp eq i8 %16, 45
  br i1 %.not43.us, label %.preheader, label %.critedge46.us, !llvm.loop !357

.critedge.us:                                     ; preds = %.preheader
  %17 = load i8, ptr %8, align 1, !tbaa !38
  %18 = icmp eq i8 %17, 45
  br i1 %18, label %.critedge50, label %.critedge46.us

.critedge46.us:                                   ; preds = %14, %.critedge.us, %10, %.lr.ph.split.us
  %indvars.iv.next63 = add nsw i64 %indvars.iv62, -1
  %19 = icmp sgt i64 %indvars.iv62, 1
  br i1 %19, label %.lr.ph.split.us, label %.critedge50, !llvm.loop !358

.lr.ph.split:                                     ; preds = %.lr.ph, %.critedge46
  %indvars.iv = phi i64 [ %indvars.iv.next, %.critedge46 ], [ %7, %.lr.ph ]
  %gep = getelementptr ptr, ptr %invariant.gep, i64 %indvars.iv
  %20 = load ptr, ptr %gep, align 8, !tbaa !5
  %21 = tail call noundef ptr @strstr(ptr noundef nonnull dereferenceable(1) %20, ptr noundef nonnull dereferenceable(1) %2) #52
  %.not = icmp eq ptr %21, null
  br i1 %.not, label %.critedge46, label %.preheader59

.preheader59:                                     ; preds = %.lr.ph.split, %22
  %.032 = phi ptr [ %23, %22 ], [ %20, %.lr.ph.split ]
  %.not42 = icmp eq ptr %.032, %21
  br i1 %.not42, label %.critedge, label %22

22:                                               ; preds = %.preheader59
  %23 = getelementptr inbounds nuw i8, ptr %.032, i64 1
  %24 = load i8, ptr %.032, align 1, !tbaa !38
  %.not43 = icmp eq i8 %24, 45
  br i1 %.not43, label %.preheader59, label %.critedge46, !llvm.loop !357

.critedge:                                        ; preds = %.preheader59
  %25 = load i8, ptr %20, align 1, !tbaa !38
  %26 = icmp eq i8 %25, 45
  br i1 %26, label %27, label %.critedge46

27:                                               ; preds = %.critedge
  %28 = tail call i64 @strlen(ptr noundef nonnull dereferenceable(1) %2) #52
  %29 = getelementptr inbounds nuw i8, ptr %21, i64 %28
  %30 = tail call i64 @strlen(ptr noundef nonnull dereferenceable(1) %29) #52
  %31 = and i64 %30, 4294967295
  %.not44 = icmp eq i64 %31, 0
  br i1 %.not44, label %.critedge46, label %32

32:                                               ; preds = %27
  call void @llvm.lifetime.start.p0(i64 24, ptr nonnull %5) #49
  %33 = tail call i64 @strlen(ptr noundef nonnull readonly dereferenceable(1) %29) #52
  %34 = trunc i64 %33 to i32
  %35 = icmp ult i32 %34, 24
  br i1 %35, label %36, label %42

36:                                               ; preds = %32
  %37 = and i64 %33, 31
  %38 = getelementptr inbounds nuw [24 x i8], ptr %5, i64 0, i64 %37
  store i8 0, ptr %38, align 1, !tbaa !38
  %39 = trunc i64 %33 to i8
  %40 = sub nuw nsw i8 23, %39
  %41 = getelementptr inbounds nuw i8, ptr %5, i64 23
  store i8 %40, ptr %41, align 1, !tbaa !38
  br label %_ZN7doctest6StringC2EPKc.exit

42:                                               ; preds = %32
  %43 = getelementptr inbounds nuw i8, ptr %5, i64 23
  store i8 -128, ptr %43, align 1, !tbaa !38
  %44 = getelementptr inbounds nuw i8, ptr %5, i64 8
  store i32 %34, ptr %44, align 8, !tbaa !38
  %45 = add i32 %34, 1
  %46 = getelementptr inbounds nuw i8, ptr %5, i64 12
  store i32 %45, ptr %46, align 4, !tbaa !38
  %47 = zext i32 %45 to i64
  %48 = tail call noalias noundef nonnull ptr @_Znam(i64 noundef %47) #51
  store ptr %48, ptr %5, align 8, !tbaa !38
  %49 = and i64 %33, 4294967295
  %50 = getelementptr inbounds nuw i8, ptr %48, i64 %49
  store i8 0, ptr %50, align 1, !tbaa !38
  br label %_ZN7doctest6StringC2EPKc.exit

_ZN7doctest6StringC2EPKc.exit:                    ; preds = %36, %42
  %.pre-phi.i.i = phi i64 [ %37, %36 ], [ %49, %42 ]
  %.0.i.i.i = phi ptr [ %5, %36 ], [ %48, %42 ]
  call void @llvm.memcpy.p0.p0.i64(ptr nonnull align 1 %.0.i.i.i, ptr nonnull readonly align 1 %29, i64 %.pre-phi.i.i, i1 false)
  %51 = getelementptr inbounds nuw i8, ptr %3, i64 23
  %52 = load i8, ptr %51, align 1, !tbaa !38
  %53 = icmp sgt i8 %52, -1
  br i1 %53, label %_ZN7doctest6StringD2Ev.exit, label %54

54:                                               ; preds = %_ZN7doctest6StringC2EPKc.exit
  %55 = load ptr, ptr %3, align 8, !tbaa !38
  %56 = icmp eq ptr %55, null
  br i1 %56, label %_ZN7doctest6StringD2Ev.exit, label %57

57:                                               ; preds = %54
  tail call void @_ZdaPv(ptr noundef nonnull %55) #48
  br label %_ZN7doctest6StringD2Ev.exit

_ZN7doctest6StringD2Ev.exit:                      ; preds = %_ZN7doctest6StringC2EPKc.exit, %54, %57
  call void @llvm.memcpy.p0.p0.i64(ptr noundef nonnull align 8 dereferenceable(24) %3, ptr noundef nonnull align 8 dereferenceable(24) %5, i64 24, i1 false)
  call void @llvm.lifetime.end.p0(i64 24, ptr nonnull %5) #49
  br label %.critedge50

.critedge46:                                      ; preds = %22, %.critedge, %27, %.lr.ph.split
  %indvars.iv.next = add nsw i64 %indvars.iv, -1
  %58 = icmp sgt i64 %indvars.iv, 1
  br i1 %58, label %.lr.ph.split, label %.critedge50, !llvm.loop !358

.critedge50:                                      ; preds = %.critedge46, %.critedge46.us, %.critedge.us, %4, %_ZN7doctest6StringD2Ev.exit
  %59 = phi i1 [ true, %_ZN7doctest6StringD2Ev.exit ], [ false, %4 ], [ false, %.critedge46.us ], [ true, %.critedge.us ], [ false, %.critedge46 ]
  ret i1 %59
}